target datalayout = "e-m:e-p270:32:32-p271:32:32-p272:64:64-i64:64-i128:128-f80:128-n8:16:32:64-S128"
target triple = "x86_64-pc-linux-gnu"

%"class.icu_77::UObject" = type { ptr }
%"class.icu_77::FilteredNormalizer2" = type { %"class.icu_77::Normalizer2", ptr, ptr }
%"class.icu_77::Normalizer2" = type { %"class.icu_77::UObject" }

@_ZTVN6icu_777UObjectE = available_externally unnamed_addr constant { [5 x ptr] } { [5 x ptr] [ptr null, ptr @_ZTIN6icu_777UObjectE, ptr @_ZN6icu_777UObjectD1Ev, ptr @_ZN6icu_777UObjectD0Ev, ptr @_ZNK6icu_777UObject17getDynamicClassIDEv] }, align 8

; Function Attrs: inlinehint mustprogress nounwind uwtable
define linkonce_odr void @_ZN6icu_777UObjectC2Ev(ptr noundef nonnull align 8 dereferenceable(8) %0) unnamed_addr #3 comdat align 2 {
  %2 = alloca ptr, align 8
  store ptr %0, ptr %2, align 8, !tbaa !30
  %3 = load ptr, ptr %2, align 8
  store ptr getelementptr inbounds inrange(-16, 24) ({ [5 x ptr] }, ptr @_ZTVN6icu_777UObjectE, i32 0, i32 0, i32 2), ptr %3, align 8, !tbaa !12
  ret void
}

; Function Attrs: inlinehint mustprogress nounwind uwtable
define linkonce_odr void @_ZN6icu_7711Normalizer2C2Ev(ptr noundef nonnull align 8 dereferenceable(8) %0) unnamed_addr #3 comdat align 2 {
  %2 = alloca ptr, align 8
  store ptr %0, ptr %2, align 8, !tbaa !46
  %3 = load ptr, ptr %2, align 8
  call void @_ZN6icu_777UObjectC2Ev(ptr noundef nonnull align 8 dereferenceable(8) %3) #9
  store ptr getelementptr inbounds inrange(-16, 144) ({ [20 x ptr] }, ptr @_ZTVN6icu_7711Normalizer2E, i32 0, i32 0, i32 2), ptr %3, align 8, !tbaa !12
  ret void
}

; Function Attrs: mustprogress nounwind uwtable
define linkonce_odr void @_ZN6icu_7719FilteredNormalizer2C2ERKNS_11Normalizer2ERKNS_10UnicodeSetE(ptr noundef nonnull align 8 dereferenceable(24) %0, ptr noundef nonnull align 8 dereferenceable(8) %1, ptr noundef nonnull align 8 dereferenceable(200) %2) unnamed_addr #0 comdat align 2 {
  %4 = alloca ptr, align 8
  %5 = alloca ptr, align 8
  %6 = alloca ptr, align 8
  store ptr %0, ptr %4, align 8, !tbaa !45
  store ptr %1, ptr %5, align 8, !tbaa !46
  store ptr %2, ptr %6, align 8, !tbaa !47
  %7 = load ptr, ptr %4, align 8
  call void @_ZN6icu_7711Normalizer2C2Ev(ptr noundef nonnull align 8 dereferenceable(8) %7) #9
  store ptr getelementptr inbounds inrange(-16, 144) ({ [20 x ptr] }, ptr @_ZTVN6icu_7719FilteredNormalizer2E, i32 0, i32 0, i32 2), ptr %7, align 8, !tbaa !12
  %8 = getelementptr inbounds nuw %"class.icu_77::FilteredNormalizer2", ptr %7, i32 0, i32 1
  %9 = load ptr, ptr %5, align 8, !tbaa !46
  store ptr %9, ptr %8, align 8, !tbaa !46
  %10 = getelementptr inbounds nuw %"class.icu_77::FilteredNormalizer2", ptr %7, i32 0, i32 2
  %11 = load ptr, ptr %6, align 8, !tbaa !47
  store ptr %11, ptr %10, align 8, !tbaa !47
  ret void
}

; Function Attrs: inlinehint mustprogress nounwind uwtable
define internal noundef signext i8 @_ZL9U_SUCCESS10UErrorCode(i32 noundef %0) #3 {
  %2 = alloca i32, align 4
  store i32 %0, ptr %2, align 4, !tbaa !33
  %3 = load i32, ptr %2, align 4, !tbaa !33
  %4 = icmp sle i32 %3, 0
  %5 = zext i1 %4 to i8
  ret i8 %5
}

; Function Attrs: mustprogress uwtable
define noundef signext i8 @_ZN6icu_7710Normalizer12isNormalizedERKNS_13UnicodeStringE18UNormalizationModeiR10UErrorCode(ptr noundef nonnull align 8 dereferenceable(64) %0, i32 noundef %1, i32 noundef %2, ptr noundef nonnull align 4 dereferenceable(4) %3) #1 align 2 personality ptr @__gxx_personality_v0 {
  %5 = alloca i8, align 1
  %6 = alloca ptr, align 8
  %7 = alloca i32, align 4
  %8 = alloca i32, align 4
  %9 = alloca ptr, align 8
  %10 = alloca ptr, align 8
  %11 = alloca %"class.icu_77::FilteredNormalizer2", align 8
  %12 = alloca ptr, align 8
  %13 = alloca i32, align 4
  %14 = alloca i32, align 4
  store ptr %0, ptr %6, align 8, !tbaa !8
  store i32 %1, ptr %7, align 4, !tbaa !10
  store i32 %2, ptr %8, align 4, !tbaa !37
  store ptr %3, ptr %9, align 8, !tbaa !49
  call void @llvm.lifetime.start.p0(i64 8, ptr %10) #9
  %15 = load i32, ptr %7, align 4, !tbaa !10
  %16 = load ptr, ptr %9, align 8, !tbaa !49
  %17 = call noundef ptr @_ZN6icu_7718Normalizer2Factory11getInstanceE18UNormalizationModeR10UErrorCode(i32 noundef %15, ptr noundef nonnull align 4 dereferenceable(4) %16)
  store ptr %17, ptr %10, align 8, !tbaa !46
  %18 = load ptr, ptr %9, align 8, !tbaa !49
  %19 = load i32, ptr %18, align 4, !tbaa !33
  %20 = call noundef signext i8 @_ZL9U_SUCCESS10UErrorCode(i32 noundef %19)
  %21 = icmp ne i8 %20, 0
  br i1 %21, label %22, label %46

22:                                               ; preds = %4
  %23 = load i32, ptr %8, align 4, !tbaa !37
  %24 = and i32 %23, 32
  %25 = icmp ne i32 %24, 0
  br i1 %25, label %26, label %38

26:                                               ; preds = %22
  call void @llvm.lifetime.start.p0(i64 24, ptr %11) #9
  %27 = load ptr, ptr %10, align 8, !tbaa !46
  %28 = load ptr, ptr %9, align 8, !tbaa !49
  %29 = call ptr @uniset_getUnicode32Instance_77(ptr noundef nonnull align 4 dereferenceable(4) %28)
  call void @_ZN6icu_7719FilteredNormalizer2C2ERKNS_11Normalizer2ERKNS_10UnicodeSetE(ptr noundef nonnull align 8 dereferenceable(24) %11, ptr noundef nonnull align 8 dereferenceable(8) %27, ptr noundef nonnull align 8 dereferenceable(200) %29)
  %30 = load ptr, ptr %6, align 8, !tbaa !8
  %31 = load ptr, ptr %9, align 8, !tbaa !49
  %32 = invoke noundef signext i8 @_ZNK6icu_7719FilteredNormalizer212isNormalizedERKNS_13UnicodeStringER10UErrorCode(ptr noundef nonnull align 8 dereferenceable(24) %11, ptr noundef nonnull align 8 dereferenceable(64) %30, ptr noundef nonnull align 4 dereferenceable(4) %31)
          to label %33 unwind label %34

33:                                               ; preds = %26
  store i8 %32, ptr %5, align 1
  call void @_ZN6icu_7719FilteredNormalizer2D1Ev(ptr noundef nonnull align 8 dereferenceable(24) %11) #9
  call void @llvm.lifetime.end.p0(i64 24, ptr %11) #9
  store i32 1, ptr %14, align 4
  br label %47

34:                                               ; preds = %26
  %35 = landingpad { ptr, i32 }
          cleanup
  %36 = extractvalue { ptr, i32 } %35, 0
  store ptr %36, ptr %12, align 8
  %37 = extractvalue { ptr, i32 } %35, 1
  store i32 %37, ptr %13, align 4
  call void @_ZN6icu_7719FilteredNormalizer2D1Ev(ptr noundef nonnull align 8 dereferenceable(24) %11) #9
  call void @llvm.lifetime.end.p0(i64 24, ptr %11) #9
  call void @llvm.lifetime.end.p0(i64 8, ptr %10) #9
  br label %49

38:                                               ; preds = %22
  %39 = load ptr, ptr %10, align 8, !tbaa !46
  %40 = load ptr, ptr %6, align 8, !tbaa !8
  %41 = load ptr, ptr %9, align 8, !tbaa !49
  %42 = load ptr, ptr %39, align 8, !tbaa !12
  %43 = getelementptr inbounds ptr, ptr %42, i64 11
  %44 = load ptr, ptr %43, align 8
  %45 = call noundef signext i8 %44(ptr noundef nonnull align 8 dereferenceable(8) %39, ptr noundef nonnull align 8 dereferenceable(64) %40, ptr noundef nonnull align 4 dereferenceable(4) %41)
  store i8 %45, ptr %5, align 1
  store i32 1, ptr %14, align 4
  br label %47

46:                                               ; preds = %4
  store i8 0, ptr %5, align 1
  store i32 1, ptr %14, align 4
  br label %47

47:                                               ; preds = %46, %38, %33
  call void @llvm.lifetime.end.p0(i64 8, ptr %10) #9
  %48 = load i8, ptr %5, align 1
  ret i8 %48

49:                                               ; preds = %34
  %50 = load ptr, ptr %12, align 8
  %51 = load i32, ptr %13, align 4
  %52 = insertvalue { ptr, i32 } poison, ptr %50, 0
  %53 = insertvalue { ptr, i32 } %52, i32 %51, 1
  resume { ptr, i32 } %53
}